; Function Attrs: mustprogress uwtable
define void @_Z13duAppendArrowP11duDebugDrawffffffffj(ptr noundef %0, float noundef %1, float noundef %2, float noundef %3, float noundef %4, float noundef %5, float noundef %6, float noundef %7, float noundef %8, i32 noundef %9) local_unnamed_addr #4 {
  %11 = alloca [3 x float], align 4
  %12 = alloca [3 x float], align 4
  %.not = icmp eq ptr %0, null
  br i1 %.not, label %29, label %13

13:                                               ; preds = %10
  %14 = load ptr, ptr %0, align 8
  %15 = getelementptr inbounds i8, ptr %14, i64 48
  %16 = load ptr, ptr %15, align 8
  tail call void %16(ptr noundef nonnull align 8 dereferenceable(8) %0, float noundef %1, float noundef %2, float noundef %3, i32 noundef %9)
  %17 = load ptr, ptr %0, align 8
  %18 = getelementptr inbounds i8, ptr %17, i64 48
  %19 = load ptr, ptr %18, align 8
  tail call void %19(ptr noundef nonnull align 8 dereferenceable(8) %0, float noundef %4, float noundef %5, float noundef %6, i32 noundef %9)
  store float %1, ptr %11, align 4
  %20 = getelementptr inbounds i8, ptr %11, i64 4
  store float %2, ptr %20, align 4
  %21 = getelementptr inbounds i8, ptr %11, i64 8
  store float %3, ptr %21, align 4
  store float %4, ptr %12, align 4
  %22 = getelementptr inbounds i8, ptr %12, i64 4
  store float %5, ptr %22, align 4
  %23 = getelementptr inbounds i8, ptr %12, i64 8
  store float %6, ptr %23, align 4
  %24 = fcmp ogt float %7, 0x3F50624DE0000000
  br i1 %24, label %25, label %26

25:                                               ; preds = %13
  call void @_Z15appendArrowHeadP11duDebugDrawPKfS2_fj(ptr noundef nonnull %0, ptr noundef nonnull %11, ptr noundef nonnull %12, float noundef %7, i32 noundef %9)
  br label %26

26:                                               ; preds = %25, %13
  %27 = fcmp ogt float %8, 0x3F50624DE0000000
  br i1 %27, label %28, label %29

28:                                               ; preds = %26
  call void @_Z15appendArrowHeadP11duDebugDrawPKfS2_fj(ptr noundef nonnull %0, ptr noundef nonnull %12, ptr noundef nonnull %11, float noundef %8, i32 noundef %9)
  br label %29

29:                                               ; preds = %10, %28, %26
  ret void
}